; Function Attrs: cold nounwind optsize uwtable
define internal range(i32 -12, 1) i32 @preinit(ptr noundef readonly captures(none) %0) #0 {
  %2 = getelementptr inbounds nuw i8, ptr %0, i64 72
  %3 = load ptr, ptr %2, align 8, !tbaa !4
  %4 = getelementptr inbounds nuw i8, ptr %3, i64 32
  store i64 -9223372036854775808, ptr %4, align 8, !tbaa !20
  %5 = tail call ptr @swr_alloc() #11
  %6 = getelementptr inbounds nuw i8, ptr %3, i64 24
  store ptr %5, ptr %6, align 8, !tbaa !25
  %.not = icmp eq ptr %5, null
  %. = select i1 %.not, i32 -12, i32 0
  ret i32 %.
}